target datalayout = "e-m:e-p270:32:32-p271:32:32-p272:64:64-i64:64-i128:128-f80:128-n8:16:32:64-S128"
target triple = "x86_64-pc-linux-gnu"

%struct._tokenizer_mode = type { i32, i32, i32, i8, i32, i32, ptr, ptr, i32, i64, i64, i64, i64, ptr, i32, i32 }
%struct.tok_state = type { ptr, ptr, ptr, i32, ptr, ptr, ptr, ptr, i32, ptr, i32, i32, [100 x i32], i32, i32, ptr, ptr, i32, i32, i32, i32, i32, [200 x i8], [200 x i32], [200 x i32], ptr, [100 x i32], i32, i32, ptr, i32, ptr, ptr, ptr, ptr, ptr, ptr, ptr, ptr, i32, i32, ptr, i32, [150 x %struct._tokenizer_mode], i32, i32, i32, i32 }
%struct.token = type { i32, i32, i32, i32, i32, ptr, ptr, ptr }

; Function Attrs: nounwind uwtable
define hidden i32 @_PyLexer_token_setup(ptr noundef %0, ptr noundef %1, i32 noundef %2, ptr noundef %3, ptr noundef %4) #0 {
  %6 = alloca ptr, align 8
  %7 = alloca ptr, align 8
  %8 = alloca i32, align 4
  %9 = alloca ptr, align 8
  %10 = alloca ptr, align 8
  store ptr %0, ptr %6, align 8, !tbaa !4
  store ptr %1, ptr %7, align 8, !tbaa !70
  store i32 %2, ptr %8, align 4, !tbaa !27
  store ptr %3, ptr %9, align 8, !tbaa !58
  store ptr %4, ptr %10, align 8, !tbaa !58
  %11 = load ptr, ptr %6, align 8, !tbaa !4
  %12 = getelementptr inbounds nuw %struct.tok_state, ptr %11, i32 0, i32 21
  %13 = load i32, ptr %12, align 8, !tbaa !35
  %14 = load ptr, ptr %7, align 8, !tbaa !70
  %15 = getelementptr inbounds nuw %struct.token, ptr %14, i32 0, i32 0
  store i32 %13, ptr %15, align 8, !tbaa !74
  %16 = load i32, ptr %8, align 4, !tbaa !27
  %17 = icmp eq i32 %16, 3
  br i1 %17, label %21, label %18

18:                                               ; preds = %5
  %19 = load i32, ptr %8, align 4, !tbaa !27
  %20 = icmp eq i32 %19, 60
  br i1 %20, label %21, label %27

21:                                               ; preds = %18, %5
  %22 = load ptr, ptr %6, align 8, !tbaa !4
  %23 = getelementptr inbounds nuw %struct.tok_state, ptr %22, i32 0, i32 18
  %24 = load i32, ptr %23, align 4, !tbaa !81
  %25 = load ptr, ptr %7, align 8, !tbaa !70
  %26 = getelementptr inbounds nuw %struct.token, ptr %25, i32 0, i32 1
  store i32 %24, ptr %26, align 4, !tbaa !76
  br label %33

27:                                               ; preds = %18
  %28 = load ptr, ptr %6, align 8, !tbaa !4
  %29 = getelementptr inbounds nuw %struct.tok_state, ptr %28, i32 0, i32 17
  %30 = load i32, ptr %29, align 8, !tbaa !32
  %31 = load ptr, ptr %7, align 8, !tbaa !70
  %32 = getelementptr inbounds nuw %struct.token, ptr %31, i32 0, i32 1
  store i32 %30, ptr %32, align 4, !tbaa !76
  br label %33

33:                                               ; preds = %27, %21
  %34 = load ptr, ptr %6, align 8, !tbaa !4
  %35 = getelementptr inbounds nuw %struct.tok_state, ptr %34, i32 0, i32 17
  %36 = load i32, ptr %35, align 8, !tbaa !32
  %37 = load ptr, ptr %7, align 8, !tbaa !70
  %38 = getelementptr inbounds nuw %struct.token, ptr %37, i32 0, i32 3
  store i32 %36, ptr %38, align 4, !tbaa !75
  %39 = load ptr, ptr %7, align 8, !tbaa !70
  %40 = getelementptr inbounds nuw %struct.token, ptr %39, i32 0, i32 4
  store i32 -1, ptr %40, align 8, !tbaa !78
  %41 = load ptr, ptr %7, align 8, !tbaa !70
  %42 = getelementptr inbounds nuw %struct.token, ptr %41, i32 0, i32 2
  store i32 -1, ptr %42, align 8, !tbaa !77
  %43 = load ptr, ptr %9, align 8, !tbaa !58
  %44 = load ptr, ptr %7, align 8, !tbaa !70
  %45 = getelementptr inbounds nuw %struct.token, ptr %44, i32 0, i32 5
  store ptr %43, ptr %45, align 8, !tbaa !79
  %46 = load ptr, ptr %10, align 8, !tbaa !58
  %47 = load ptr, ptr %7, align 8, !tbaa !70
  %48 = getelementptr inbounds nuw %struct.token, ptr %47, i32 0, i32 6
  store ptr %46, ptr %48, align 8, !tbaa !80
  %49 = load ptr, ptr %9, align 8, !tbaa !58
  %50 = icmp ne ptr %49, null
  br i1 %50, label %51, label %65

51:                                               ; preds = %33
  %52 = load ptr, ptr %10, align 8, !tbaa !58
  %53 = icmp ne ptr %52, null
  br i1 %53, label %54, label %65

54:                                               ; preds = %51
  %55 = load ptr, ptr %6, align 8, !tbaa !4
  %56 = getelementptr inbounds nuw %struct.tok_state, ptr %55, i32 0, i32 19
  %57 = load i32, ptr %56, align 8, !tbaa !33
  %58 = load ptr, ptr %7, align 8, !tbaa !70
  %59 = getelementptr inbounds nuw %struct.token, ptr %58, i32 0, i32 2
  store i32 %57, ptr %59, align 8, !tbaa !77
  %60 = load ptr, ptr %6, align 8, !tbaa !4
  %61 = getelementptr inbounds nuw %struct.tok_state, ptr %60, i32 0, i32 20
  %62 = load i32, ptr %61, align 4, !tbaa !34
  %63 = load ptr, ptr %7, align 8, !tbaa !70
  %64 = getelementptr inbounds nuw %struct.token, ptr %63, i32 0, i32 4
  store i32 %62, ptr %64, align 8, !tbaa !78
  br label %65

65:                                               ; preds = %54, %51, %33
  %66 = load i32, ptr %8, align 4, !tbaa !27
  ret i32 %66
}