; Function Attrs: mustprogress nofree norecurse nosync nounwind willreturn memory(argmem: readwrite) uwtable
define hidden noundef i32 @_PyLexer_token_setup(ptr noundef readonly captures(none) %0, ptr noundef writeonly captures(none) initializes((0, 20), (24, 40)) %1, i32 noundef returned %2, ptr noundef %3, ptr noundef %4) local_unnamed_addr #4 {
  %6 = getelementptr inbounds nuw i8, ptr %0, i64 528
  %7 = load i32, ptr %6, align 8, !tbaa !21
  store i32 %7, ptr %1, align 8, !tbaa !45
  switch i32 %2, label %12 [
    i32 60, label %8
    i32 3, label %8
  ]

8:                                                ; preds = %5, %5
  %9 = getelementptr inbounds nuw i8, ptr %0, i64 516
  %10 = load i32, ptr %9, align 4, !tbaa !53
  %11 = getelementptr inbounds nuw i8, ptr %1, i64 4
  store i32 %10, ptr %11, align 4, !tbaa !48
  %.phi.trans.insert = getelementptr inbounds nuw i8, ptr %0, i64 512
  %.pre = load i32, ptr %.phi.trans.insert, align 8, !tbaa !46
  br label %16

12:                                               ; preds = %5
  %13 = getelementptr inbounds nuw i8, ptr %0, i64 512
  %14 = load i32, ptr %13, align 8, !tbaa !46
  %15 = getelementptr inbounds nuw i8, ptr %1, i64 4
  store i32 %14, ptr %15, align 4, !tbaa !48
  br label %16

16:                                               ; preds = %12, %8
  %17 = phi i32 [ %14, %12 ], [ %.pre, %8 ]
  %18 = getelementptr inbounds nuw i8, ptr %1, i64 12
  store i32 %17, ptr %18, align 4, !tbaa !47
  %19 = getelementptr inbounds nuw i8, ptr %1, i64 16
  store i32 -1, ptr %19, align 8, !tbaa !50
  %20 = getelementptr inbounds nuw i8, ptr %1, i64 8
  store i32 -1, ptr %20, align 8, !tbaa !49
  %21 = getelementptr inbounds nuw i8, ptr %1, i64 24
  store ptr %3, ptr %21, align 8, !tbaa !51
  %22 = getelementptr inbounds nuw i8, ptr %1, i64 32
  store ptr %4, ptr %22, align 8, !tbaa !52
  %23 = icmp ne ptr %3, null
  %24 = icmp ne ptr %4, null
  %or.cond3 = and i1 %23, %24
  br i1 %or.cond3, label %25, label %30

25:                                               ; preds = %16
  %26 = getelementptr inbounds nuw i8, ptr %0, i64 520
  %27 = load i32, ptr %26, align 8, !tbaa !19
  store i32 %27, ptr %20, align 8, !tbaa !49
  %28 = getelementptr inbounds nuw i8, ptr %0, i64 524
  %29 = load i32, ptr %28, align 4, !tbaa !20
  store i32 %29, ptr %19, align 8, !tbaa !50
  br label %30

30:                                               ; preds = %25, %16
  ret i32 %2
}